target datalayout = "e-m:e-p270:32:32-p271:32:32-p272:64:64-i64:64-i128:128-f80:128-n8:16:32:64-S128"
target triple = "x86_64-pc-linux-gnu"

%struct.evthread_lock_callbacks = type { i32, i32, ptr, ptr, ptr, ptr }
%struct.evbuffer = type { ptr, ptr, ptr, i64, i64, i64, i64, ptr, i8, i32, ptr, i32, %struct.event_callback, %struct.evbuffer_cb_queue, ptr }
%struct.event_callback = type { %struct.anon, i16, i8, i8, %union.anon, ptr }
%struct.anon = type { ptr, ptr }
%union.anon = type { ptr }
%struct.evbuffer_cb_queue = type { ptr }
%struct.evbuffer_cb_entry = type { %struct.anon.1, %union.anon.2, ptr, i32 }
%struct.anon.1 = type { ptr, ptr }
%union.anon.2 = type { ptr }

@evthread_lock_fns_ = external global %struct.evthread_lock_callbacks, align 8

; Function Attrs: nounwind uwtable
define i32 @evbuffer_remove_cb_entry(ptr noundef %0, ptr noundef %1) #0 {
  %3 = alloca ptr, align 8
  %4 = alloca ptr, align 8
  store ptr %0, ptr %3, align 8
  store ptr %1, ptr %4, align 8
  br label %5

5:                                                ; preds = %2
  br label %6

6:                                                ; preds = %5
  %7 = load ptr, ptr %3, align 8
  %8 = getelementptr inbounds nuw %struct.evbuffer, ptr %7, i32 0, i32 7
  %9 = load ptr, ptr %8, align 8
  %10 = icmp ne ptr %9, null
  br i1 %10, label %11, label %17

11:                                               ; preds = %6
  %12 = load ptr, ptr getelementptr inbounds nuw (%struct.evthread_lock_callbacks, ptr @evthread_lock_fns_, i32 0, i32 4), align 8
  %13 = load ptr, ptr %3, align 8
  %14 = getelementptr inbounds nuw %struct.evbuffer, ptr %13, i32 0, i32 7
  %15 = load ptr, ptr %14, align 8
  %16 = call i32 %12(i32 noundef 0, ptr noundef %15)
  br label %17

17:                                               ; preds = %11, %6
  br label %18

18:                                               ; preds = %17
  br label %19

19:                                               ; preds = %18
  br label %20

20:                                               ; preds = %19
  %21 = load ptr, ptr %4, align 8
  %22 = getelementptr inbounds nuw %struct.evbuffer_cb_entry, ptr %21, i32 0, i32 0
  %23 = getelementptr inbounds nuw %struct.anon.1, ptr %22, i32 0, i32 0
  %24 = load ptr, ptr %23, align 8
  %25 = icmp ne ptr %24, null
  br i1 %25, label %26, label %37

26:                                               ; preds = %20
  %27 = load ptr, ptr %4, align 8
  %28 = getelementptr inbounds nuw %struct.evbuffer_cb_entry, ptr %27, i32 0, i32 0
  %29 = getelementptr inbounds nuw %struct.anon.1, ptr %28, i32 0, i32 1
  %30 = load ptr, ptr %29, align 8
  %31 = load ptr, ptr %4, align 8
  %32 = getelementptr inbounds nuw %struct.evbuffer_cb_entry, ptr %31, i32 0, i32 0
  %33 = getelementptr inbounds nuw %struct.anon.1, ptr %32, i32 0, i32 0
  %34 = load ptr, ptr %33, align 8
  %35 = getelementptr inbounds nuw %struct.evbuffer_cb_entry, ptr %34, i32 0, i32 0
  %36 = getelementptr inbounds nuw %struct.anon.1, ptr %35, i32 0, i32 1
  store ptr %30, ptr %36, align 8
  br label %37

37:                                               ; preds = %26, %20
  %38 = load ptr, ptr %4, align 8
  %39 = getelementptr inbounds nuw %struct.evbuffer_cb_entry, ptr %38, i32 0, i32 0
  %40 = getelementptr inbounds nuw %struct.anon.1, ptr %39, i32 0, i32 0
  %41 = load ptr, ptr %40, align 8
  %42 = load ptr, ptr %4, align 8
  %43 = getelementptr inbounds nuw %struct.evbuffer_cb_entry, ptr %42, i32 0, i32 0
  %44 = getelementptr inbounds nuw %struct.anon.1, ptr %43, i32 0, i32 1
  %45 = load ptr, ptr %44, align 8
  store ptr %41, ptr %45, align 8
  br label %46

46:                                               ; preds = %37
  br label %47

47:                                               ; preds = %46
  br label %48

48:                                               ; preds = %47
  %49 = load ptr, ptr %3, align 8
  %50 = getelementptr inbounds nuw %struct.evbuffer, ptr %49, i32 0, i32 7
  %51 = load ptr, ptr %50, align 8
  %52 = icmp ne ptr %51, null
  br i1 %52, label %53, label %59

53:                                               ; preds = %48
  %54 = load ptr, ptr getelementptr inbounds nuw (%struct.evthread_lock_callbacks, ptr @evthread_lock_fns_, i32 0, i32 5), align 8
  %55 = load ptr, ptr %3, align 8
  %56 = getelementptr inbounds nuw %struct.evbuffer, ptr %55, i32 0, i32 7
  %57 = load ptr, ptr %56, align 8
  %58 = call i32 %54(i32 noundef 0, ptr noundef %57)
  br label %59

59:                                               ; preds = %53, %48
  br label %60

60:                                               ; preds = %59
  br label %61

61:                                               ; preds = %60
  %62 = load ptr, ptr %4, align 8
  call void @event_mm_free_(ptr noundef %62)
  ret i32 0
}

; Function Attrs: nounwind uwtable
define i32 @evbuffer_remove_cb(ptr noundef %0, ptr noundef %1, ptr noundef %2) #0 {
  %4 = alloca ptr, align 8
  %5 = alloca ptr, align 8
  %6 = alloca ptr, align 8
  %7 = alloca ptr, align 8
  %8 = alloca i32, align 4
  store ptr %0, ptr %4, align 8
  store ptr %1, ptr %5, align 8
  store ptr %2, ptr %6, align 8
  call void @llvm.lifetime.start.p0(i64 8, ptr %7) #10
  call void @llvm.lifetime.start.p0(i64 4, ptr %8) #10
  store i32 -1, ptr %8, align 4
  br label %9

9:                                                ; preds = %3
  br label %10

10:                                               ; preds = %9
  %11 = load ptr, ptr %4, align 8
  %12 = getelementptr inbounds nuw %struct.evbuffer, ptr %11, i32 0, i32 7
  %13 = load ptr, ptr %12, align 8
  %14 = icmp ne ptr %13, null
  br i1 %14, label %15, label %21

15:                                               ; preds = %10
  %16 = load ptr, ptr getelementptr inbounds nuw (%struct.evthread_lock_callbacks, ptr @evthread_lock_fns_, i32 0, i32 4), align 8
  %17 = load ptr, ptr %4, align 8
  %18 = getelementptr inbounds nuw %struct.evbuffer, ptr %17, i32 0, i32 7
  %19 = load ptr, ptr %18, align 8
  %20 = call i32 %16(i32 noundef 0, ptr noundef %19)
  br label %21

21:                                               ; preds = %15, %10
  br label %22

22:                                               ; preds = %21
  br label %23

23:                                               ; preds = %22
  br label %24

24:                                               ; preds = %23
  br label %25

25:                                               ; preds = %24
  %26 = load ptr, ptr %4, align 8
  %27 = getelementptr inbounds nuw %struct.evbuffer, ptr %26, i32 0, i32 13
  %28 = getelementptr inbounds nuw %struct.evbuffer_cb_queue, ptr %27, i32 0, i32 0
  %29 = load ptr, ptr %28, align 8
  store ptr %29, ptr %7, align 8
  br label %30

30:                                               ; preds = %50, %25
  %31 = load ptr, ptr %7, align 8
  %32 = icmp ne ptr %31, null
  br i1 %32, label %33, label %55

33:                                               ; preds = %30
  %34 = load ptr, ptr %5, align 8
  %35 = load ptr, ptr %7, align 8
  %36 = getelementptr inbounds nuw %struct.evbuffer_cb_entry, ptr %35, i32 0, i32 1
  %37 = load ptr, ptr %36, align 8
  %38 = icmp eq ptr %34, %37
  br i1 %38, label %39, label %49

39:                                               ; preds = %33
  %40 = load ptr, ptr %6, align 8
  %41 = load ptr, ptr %7, align 8
  %42 = getelementptr inbounds nuw %struct.evbuffer_cb_entry, ptr %41, i32 0, i32 2
  %43 = load ptr, ptr %42, align 8
  %44 = icmp eq ptr %40, %43
  br i1 %44, label %45, label %49

45:                                               ; preds = %39
  %46 = load ptr, ptr %4, align 8
  %47 = load ptr, ptr %7, align 8
  %48 = call i32 @evbuffer_remove_cb_entry(ptr noundef %46, ptr noundef %47)
  store i32 %48, ptr %8, align 4
  br label %56

49:                                               ; preds = %39, %33
  br label %50

50:                                               ; preds = %49
  %51 = load ptr, ptr %7, align 8
  %52 = getelementptr inbounds nuw %struct.evbuffer_cb_entry, ptr %51, i32 0, i32 0
  %53 = getelementptr inbounds nuw %struct.anon.1, ptr %52, i32 0, i32 0
  %54 = load ptr, ptr %53, align 8
  store ptr %54, ptr %7, align 8
  br label %30, !llvm.loop !37

55:                                               ; preds = %30
  br label %56

56:                                               ; preds = %55, %45
  br label %57

57:                                               ; preds = %56
  br label %58

58:                                               ; preds = %57
  %59 = load ptr, ptr %4, align 8
  %60 = getelementptr inbounds nuw %struct.evbuffer, ptr %59, i32 0, i32 7
  %61 = load ptr, ptr %60, align 8
  %62 = icmp ne ptr %61, null
  br i1 %62, label %63, label %69

63:                                               ; preds = %58
  %64 = load ptr, ptr getelementptr inbounds nuw (%struct.evthread_lock_callbacks, ptr @evthread_lock_fns_, i32 0, i32 5), align 8
  %65 = load ptr, ptr %4, align 8
  %66 = getelementptr inbounds nuw %struct.evbuffer, ptr %65, i32 0, i32 7
  %67 = load ptr, ptr %66, align 8
  %68 = call i32 %64(i32 noundef 0, ptr noundef %67)
  br label %69

69:                                               ; preds = %63, %58
  br label %70

70:                                               ; preds = %69
  br label %71

71:                                               ; preds = %70
  br label %72

72:                                               ; preds = %71
  br label %73

73:                                               ; preds = %72
  %74 = load i32, ptr %8, align 4
  call void @llvm.lifetime.end.p0(i64 4, ptr %8) #10
  call void @llvm.lifetime.end.p0(i64 8, ptr %7) #10
  ret i32 %74
}