; Function Attrs: nounwind uwtable
define range(i32 -1, 1) i32 @evbuffer_remove_cb(ptr noundef readonly captures(none) %0, ptr noundef readnone captures(address) %1, ptr noundef readnone captures(address) %2) local_unnamed_addr #1 {
  %4 = getelementptr inbounds nuw i8, ptr %0, i64 56
  %5 = load ptr, ptr %4, align 8
  %.not = icmp eq ptr %5, null
  br i1 %.not, label %9, label %6

6:                                                ; preds = %3
  %7 = load ptr, ptr getelementptr inbounds nuw (i8, ptr @evthread_lock_fns_, i64 24), align 8
  %8 = tail call i32 %7(i32 noundef 0, ptr noundef nonnull %5) #16
  br label %9

9:                                                ; preds = %6, %3
  %10 = getelementptr inbounds nuw i8, ptr %0, i64 128
  %.01319 = load ptr, ptr %10, align 8
  %.not1620 = icmp eq ptr %.01319, null
  br i1 %.not1620, label %.loopexit, label %.lr.ph

.lr.ph:                                           ; preds = %9, %32
  %.01321 = phi ptr [ %.013, %32 ], [ %.01319, %9 ]
  %11 = getelementptr inbounds nuw i8, ptr %.01321, i64 16
  %12 = load ptr, ptr %11, align 8
  %13 = icmp eq ptr %1, %12
  br i1 %13, label %14, label %32

14:                                               ; preds = %.lr.ph
  %15 = getelementptr inbounds nuw i8, ptr %.01321, i64 24
  %16 = load ptr, ptr %15, align 8
  %17 = icmp eq ptr %2, %16
  br i1 %17, label %18, label %32

18:                                               ; preds = %14
  %19 = load ptr, ptr %4, align 8
  %.not.i = icmp eq ptr %19, null
  br i1 %.not.i, label %23, label %20

20:                                               ; preds = %18
  %21 = load ptr, ptr getelementptr inbounds nuw (i8, ptr @evthread_lock_fns_, i64 24), align 8
  %22 = tail call i32 %21(i32 noundef 0, ptr noundef nonnull %19) #16
  br label %23

23:                                               ; preds = %20, %18
  %24 = load ptr, ptr %.01321, align 8
  %.not12.i = icmp eq ptr %24, null
  %.phi.trans.insert.i = getelementptr inbounds nuw i8, ptr %.01321, i64 8
  %.pre14.i = load ptr, ptr %.phi.trans.insert.i, align 8
  br i1 %.not12.i, label %._crit_edge.i, label %25

25:                                               ; preds = %23
  %26 = getelementptr inbounds nuw i8, ptr %24, i64 8
  store ptr %.pre14.i, ptr %26, align 8
  %.pre.i = load ptr, ptr %.01321, align 8
  br label %._crit_edge.i

._crit_edge.i:                                    ; preds = %25, %23
  %27 = phi ptr [ %.pre.i, %25 ], [ null, %23 ]
  store ptr %27, ptr %.pre14.i, align 8
  %28 = load ptr, ptr %4, align 8
  %.not13.i = icmp eq ptr %28, null
  br i1 %.not13.i, label %evbuffer_remove_cb_entry.exit, label %29

29:                                               ; preds = %._crit_edge.i
  %30 = load ptr, ptr getelementptr inbounds nuw (i8, ptr @evthread_lock_fns_, i64 32), align 8
  %31 = tail call i32 %30(i32 noundef 0, ptr noundef nonnull %28) #16
  br label %evbuffer_remove_cb_entry.exit

evbuffer_remove_cb_entry.exit:                    ; preds = %._crit_edge.i, %29
  tail call void @event_mm_free_(ptr noundef nonnull %.01321) #16
  br label %.loopexit

32:                                               ; preds = %.lr.ph, %14
  %.013 = load ptr, ptr %.01321, align 8
  %.not16 = icmp eq ptr %.013, null
  br i1 %.not16, label %.loopexit, label %.lr.ph, !llvm.loop !37

.loopexit:                                        ; preds = %32, %9, %evbuffer_remove_cb_entry.exit
  %.0 = phi i32 [ 0, %evbuffer_remove_cb_entry.exit ], [ -1, %9 ], [ -1, %32 ]
  %33 = load ptr, ptr %4, align 8
  %.not17 = icmp eq ptr %33, null
  br i1 %.not17, label %37, label %34

34:                                               ; preds = %.loopexit
  %35 = load ptr, ptr getelementptr inbounds nuw (i8, ptr @evthread_lock_fns_, i64 32), align 8
  %36 = tail call i32 %35(i32 noundef 0, ptr noundef nonnull %33) #16
  br label %37

37:                                               ; preds = %34, %.loopexit
  ret i32 %.0
}